; Function Attrs: nounwind uwtable
define void @lv_style_reset(ptr noundef %0) local_unnamed_addr #0 {
  %2 = getelementptr inbounds nuw i8, ptr %0, i64 12
  %3 = load i8, ptr %2, align 4, !tbaa !3
  %.not = icmp eq i8 %3, -1
  br i1 %.not, label %6, label %4

4:                                                ; preds = %1
  %5 = load ptr, ptr %0, align 8, !tbaa !9
  tail call void @lv_free(ptr noundef %5) #7
  br label %6

6:                                                ; preds = %4, %1
  tail call void @lv_memset(ptr noundef nonnull %0, i8 noundef zeroext 0, i64 noundef 16) #7
  ret void
}